; Function Attrs: nounwind uwtable
define dso_local noalias noundef ptr @callReplyCreate(ptr noundef %0, ptr noundef %1, ptr noundef %2) local_unnamed_addr #0 {
  %4 = tail call noalias dereferenceable_or_null(80) ptr @zmalloc(i64 noundef 80) #9
  %5 = getelementptr inbounds nuw i8, ptr %4, i64 36
  store i32 1, ptr %5, align 4, !tbaa !5
  %6 = getelementptr inbounds nuw i8, ptr %4, i64 8
  store ptr %0, ptr %6, align 8, !tbaa !16
  %7 = getelementptr inbounds nuw i8, ptr %4, i64 16
  store ptr %0, ptr %7, align 8, !tbaa !25
  %8 = getelementptr inbounds i8, ptr %0, i64 -1
  %9 = load i8, ptr %8, align 1, !tbaa !19
  %10 = zext i8 %9 to i32
  %11 = and i32 %10, 7
  switch i32 %11, label %sdslen.exit [
    i32 0, label %12
    i32 1, label %15
    i32 2, label %19
    i32 3, label %23
    i32 4, label %27
  ]

12:                                               ; preds = %3
  %13 = lshr i32 %10, 3
  %14 = zext nneg i32 %13 to i64
  br label %sdslen.exit

15:                                               ; preds = %3
  %16 = getelementptr inbounds i8, ptr %0, i64 -3
  %17 = load i8, ptr %16, align 1, !tbaa !19
  %18 = zext i8 %17 to i64
  br label %sdslen.exit

19:                                               ; preds = %3
  %20 = getelementptr inbounds i8, ptr %0, i64 -5
  %21 = load i16, ptr %20, align 1, !tbaa !35
  %22 = zext i16 %21 to i64
  br label %sdslen.exit

23:                                               ; preds = %3
  %24 = getelementptr inbounds i8, ptr %0, i64 -9
  %25 = load i32, ptr %24, align 1, !tbaa !37
  %26 = zext i32 %25 to i64
  br label %sdslen.exit

27:                                               ; preds = %3
  %28 = getelementptr inbounds i8, ptr %0, i64 -17
  %29 = load i64, ptr %28, align 1, !tbaa !31
  br label %sdslen.exit

sdslen.exit:                                      ; preds = %3, %12, %15, %19, %23, %27
  %.0.i = phi i64 [ %29, %27 ], [ %26, %23 ], [ %22, %19 ], [ %18, %15 ], [ %14, %12 ], [ 0, %3 ]
  %30 = getelementptr inbounds nuw i8, ptr %4, i64 24
  store i64 %.0.i, ptr %30, align 8, !tbaa !34
  store ptr %2, ptr %4, align 8, !tbaa !24
  %31 = getelementptr inbounds nuw i8, ptr %4, i64 72
  store ptr null, ptr %31, align 8, !tbaa !23
  %32 = getelementptr inbounds nuw i8, ptr %4, i64 64
  store ptr %1, ptr %32, align 8, !tbaa !17
  ret ptr %4
}